target datalayout = "e-m:e-p270:32:32-p271:32:32-p272:64:64-i64:64-i128:128-f80:128-n8:16:32:64-S128"
target triple = "x86_64-pc-linux-gnu"

%struct.pm_regexp_parser_t = type { ptr, ptr, ptr, ptr, i8, i8, ptr, ptr, ptr, ptr, ptr }

; Function Attrs: inlinehint nounwind sspstrong uwtable
define internal zeroext i1 @pm_regexp_char_is_eof(ptr noundef %0) #2 {
  %2 = alloca ptr, align 8
  store ptr %0, ptr %2, align 8, !tbaa !18
  %3 = load ptr, ptr %2, align 8, !tbaa !18
  %4 = getelementptr inbounds nuw %struct.pm_regexp_parser_t, ptr %3, i32 0, i32 2
  %5 = load ptr, ptr %4, align 8, !tbaa !22
  %6 = load ptr, ptr %2, align 8, !tbaa !18
  %7 = getelementptr inbounds nuw %struct.pm_regexp_parser_t, ptr %6, i32 0, i32 3
  %8 = load ptr, ptr %7, align 8, !tbaa !23
  %9 = icmp uge ptr %5, %8
  ret i1 %9
}

; Function Attrs: nounwind sspstrong uwtable
define internal zeroext i1 @pm_regexp_char_find(ptr noundef %0, i8 noundef zeroext %1) #0 {
  %3 = alloca i1, align 1
  %4 = alloca ptr, align 8
  %5 = alloca i8, align 1
  %6 = alloca ptr, align 8
  %7 = alloca i32, align 4
  store ptr %0, ptr %4, align 8, !tbaa !18
  store i8 %1, ptr %5, align 1, !tbaa !54
  %8 = load ptr, ptr %4, align 8, !tbaa !18
  %9 = call zeroext i1 @pm_regexp_char_is_eof(ptr noundef %8)
  br i1 %9, label %10, label %11

10:                                               ; preds = %2
  store i1 false, ptr %3, align 1
  br label %43

11:                                               ; preds = %2
  call void @llvm.lifetime.start.p0(i64 8, ptr %6) #8
  %12 = load ptr, ptr %4, align 8, !tbaa !18
  %13 = getelementptr inbounds nuw %struct.pm_regexp_parser_t, ptr %12, i32 0, i32 2
  %14 = load ptr, ptr %13, align 8, !tbaa !22
  %15 = load i8, ptr %5, align 1, !tbaa !54
  %16 = zext i8 %15 to i32
  %17 = load ptr, ptr %4, align 8, !tbaa !18
  %18 = getelementptr inbounds nuw %struct.pm_regexp_parser_t, ptr %17, i32 0, i32 3
  %19 = load ptr, ptr %18, align 8, !tbaa !23
  %20 = load ptr, ptr %4, align 8, !tbaa !18
  %21 = getelementptr inbounds nuw %struct.pm_regexp_parser_t, ptr %20, i32 0, i32 2
  %22 = load ptr, ptr %21, align 8, !tbaa !22
  %23 = ptrtoint ptr %19 to i64
  %24 = ptrtoint ptr %22 to i64
  %25 = sub i64 %23, %24
  %26 = load ptr, ptr %4, align 8, !tbaa !18
  %27 = getelementptr inbounds nuw %struct.pm_regexp_parser_t, ptr %26, i32 0, i32 5
  %28 = load i8, ptr %27, align 1, !tbaa !44, !range !24, !noundef !25
  %29 = trunc i8 %28 to i1
  %30 = load ptr, ptr %4, align 8, !tbaa !18
  %31 = getelementptr inbounds nuw %struct.pm_regexp_parser_t, ptr %30, i32 0, i32 6
  %32 = load ptr, ptr %31, align 8, !tbaa !46
  %33 = call ptr @pm_memchr(ptr noundef %14, i32 noundef %16, i64 noundef %25, i1 noundef zeroext %29, ptr noundef %32)
  store ptr %33, ptr %6, align 8, !tbaa !12
  %34 = load ptr, ptr %6, align 8, !tbaa !12
  %35 = icmp eq ptr %34, null
  br i1 %35, label %36, label %37

36:                                               ; preds = %11
  store i1 false, ptr %3, align 1
  store i32 1, ptr %7, align 4
  br label %42

37:                                               ; preds = %11
  %38 = load ptr, ptr %6, align 8, !tbaa !12
  %39 = getelementptr i8, ptr %38, i64 1
  %40 = load ptr, ptr %4, align 8, !tbaa !18
  %41 = getelementptr inbounds nuw %struct.pm_regexp_parser_t, ptr %40, i32 0, i32 2
  store ptr %39, ptr %41, align 8, !tbaa !22
  store i1 true, ptr %3, align 1
  store i32 1, ptr %7, align 4
  br label %42

42:                                               ; preds = %37, %36
  call void @llvm.lifetime.end.p0(i64 8, ptr %6) #8
  br label %43

43:                                               ; preds = %42, %10
  %44 = load i1, ptr %3, align 1
  ret i1 %44
}