; Function Attrs: nounwind sspstrong uwtable
define internal fastcc noundef zeroext i1 @pm_regexp_char_find(ptr noundef nonnull captures(none) %0, i8 noundef zeroext range(i8 10, 63) %1) unnamed_addr #0 {
  %3 = getelementptr i8, ptr %0, i64 16
  %.val = load ptr, ptr %3, align 8, !tbaa !16
  %4 = getelementptr i8, ptr %0, i64 24
  %.val11 = load ptr, ptr %4, align 8, !tbaa !17
  %.not = icmp ult ptr %.val, %.val11
  br i1 %.not, label %5, label %18

5:                                                ; preds = %2
  %6 = zext nneg i8 %1 to i32
  %7 = ptrtoint ptr %.val11 to i64
  %8 = ptrtoint ptr %.val to i64
  %9 = sub i64 %7, %8
  %10 = getelementptr inbounds nuw i8, ptr %0, i64 33
  %11 = load i8, ptr %10, align 1, !tbaa !39, !range !37, !noundef !38
  %12 = trunc nuw i8 %11 to i1
  %13 = getelementptr inbounds nuw i8, ptr %0, i64 40
  %14 = load ptr, ptr %13, align 8, !tbaa !41
  %15 = tail call ptr @pm_memchr(ptr noundef %.val, i32 noundef %6, i64 noundef %9, i1 noundef zeroext %12, ptr noundef %14) #5
  %.not12 = icmp eq ptr %15, null
  br i1 %.not12, label %18, label %16

16:                                               ; preds = %5
  %17 = getelementptr i8, ptr %15, i64 1
  store ptr %17, ptr %3, align 8, !tbaa !16
  br label %18

18:                                               ; preds = %16, %5, %2
  %.0 = phi i1 [ false, %2 ], [ false, %5 ], [ true, %16 ]
  ret i1 %.0
}